; Function Attrs: mustprogress nounwind uwtable
define hidden noundef zeroext i1 @_ZNK19OpenColorIO_v2_4dev18RangeTransformImpl13hasMaxInValueEv(ptr noundef nonnull align 8 dereferenceable(248) %this) unnamed_addr #7 align 2 personality ptr @__gxx_personality_v0 {
entry:
  %m_data.i = getelementptr inbounds i8, ptr %this, i64 16
  %call2 = invoke noundef zeroext i1 @_ZNK19OpenColorIO_v2_4dev11RangeOpData13hasMaxInValueEv(ptr noundef nonnull align 8 dereferenceable(228) %m_data.i)
          to label %invoke.cont unwind label %terminate.lpad

invoke.cont:                                      ; preds = %entry
  ret i1 %call2

terminate.lpad:                                   ; preds = %entry
  %0 = landingpad { ptr, i32 }
          catch ptr null
  %1 = extractvalue { ptr, i32 } %0, 0
  tail call void @__clang_call_terminate(ptr %1) #20
  unreachable
}